target datalayout = "e-m:e-p270:32:32-p271:32:32-p272:64:64-i64:64-i128:128-f80:128-n8:16:32:64-S128"
target triple = "x86_64-pc-linux-gnu"

%struct.__va_list_tag = type { i32, i32, ptr, ptr }

@.str = private unnamed_addr constant [5 x i8] c"%s: \00", align 1
@.str.1 = private unnamed_addr constant [6 x i8] c"ERROR\00", align 1
@.str.2 = private unnamed_addr constant [6 x i8] c"(%s) \00", align 1
@.str.3 = private unnamed_addr constant [18 x i8] c"'%s %s %s' failed\00", align 1
@.str.4 = private unnamed_addr constant [5 x i8] c"'%s'\00", align 1
@.str.5 = private unnamed_addr constant [9 x i8] c" @ %s:%d\00", align 1
@.str.6 = private unnamed_addr constant [2 x i8] c"\0A\00", align 1
@.str.10 = private unnamed_addr constant [5 x i8] c"SKIP\00", align 1

; Function Attrs: nounwind uwtable
define void @test_fail_message_prefix(ptr noundef %0, ptr noundef %1, i32 noundef %2, ptr noundef %3, ptr noundef %4, ptr noundef %5, ptr noundef %6) #0 {
  %8 = alloca ptr, align 8
  %9 = alloca ptr, align 8
  %10 = alloca i32, align 4
  %11 = alloca ptr, align 8
  %12 = alloca ptr, align 8
  %13 = alloca ptr, align 8
  %14 = alloca ptr, align 8
  store ptr %0, ptr %8, align 8, !tbaa !3
  store ptr %1, ptr %9, align 8, !tbaa !3
  store i32 %2, ptr %10, align 4, !tbaa !8
  store ptr %3, ptr %11, align 8, !tbaa !3
  store ptr %4, ptr %12, align 8, !tbaa !3
  store ptr %5, ptr %13, align 8, !tbaa !3
  store ptr %6, ptr %14, align 8, !tbaa !3
  %15 = load ptr, ptr %8, align 8, !tbaa !3
  %16 = icmp ne ptr %15, null
  br i1 %16, label %17, label %19

17:                                               ; preds = %7
  %18 = load ptr, ptr %8, align 8, !tbaa !3
  br label %20

19:                                               ; preds = %7
  br label %20

20:                                               ; preds = %19, %17
  %21 = phi ptr [ %18, %17 ], [ @.str.1, %19 ]
  %22 = call i32 (ptr, ...) @test_printf_stderr(ptr noundef @.str, ptr noundef %21)
  %23 = load ptr, ptr %11, align 8, !tbaa !3
  %24 = icmp ne ptr %23, null
  br i1 %24, label %25, label %28

25:                                               ; preds = %20
  %26 = load ptr, ptr %11, align 8, !tbaa !3
  %27 = call i32 (ptr, ...) @test_printf_stderr(ptr noundef @.str.2, ptr noundef %26)
  br label %28

28:                                               ; preds = %25, %20
  %29 = load ptr, ptr %14, align 8, !tbaa !3
  %30 = icmp ne ptr %29, null
  br i1 %30, label %31, label %46

31:                                               ; preds = %28
  %32 = load ptr, ptr %12, align 8, !tbaa !3
  %33 = icmp ne ptr %32, null
  br i1 %33, label %34, label %42

34:                                               ; preds = %31
  %35 = load ptr, ptr %13, align 8, !tbaa !3
  %36 = icmp ne ptr %35, null
  br i1 %36, label %37, label %42

37:                                               ; preds = %34
  %38 = load ptr, ptr %12, align 8, !tbaa !3
  %39 = load ptr, ptr %14, align 8, !tbaa !3
  %40 = load ptr, ptr %13, align 8, !tbaa !3
  %41 = call i32 (ptr, ...) @test_printf_stderr(ptr noundef @.str.3, ptr noundef %38, ptr noundef %39, ptr noundef %40)
  br label %45

42:                                               ; preds = %34, %31
  %43 = load ptr, ptr %14, align 8, !tbaa !3
  %44 = call i32 (ptr, ...) @test_printf_stderr(ptr noundef @.str.4, ptr noundef %43)
  br label %45

45:                                               ; preds = %42, %37
  br label %46

46:                                               ; preds = %45, %28
  %47 = load ptr, ptr %9, align 8, !tbaa !3
  %48 = icmp ne ptr %47, null
  br i1 %48, label %49, label %53

49:                                               ; preds = %46
  %50 = load ptr, ptr %9, align 8, !tbaa !3
  %51 = load i32, ptr %10, align 4, !tbaa !8
  %52 = call i32 (ptr, ...) @test_printf_stderr(ptr noundef @.str.5, ptr noundef %50, i32 noundef %51)
  br label %53

53:                                               ; preds = %49, %46
  %54 = call i32 (ptr, ...) @test_printf_stderr(ptr noundef @.str.6)
  ret void
}

; Function Attrs: nounwind uwtable
define internal void @test_fail_message_va(ptr noundef %0, ptr noundef %1, i32 noundef %2, ptr noundef %3, ptr noundef %4, ptr noundef %5, ptr noundef %6, ptr noundef %7, ptr noundef %8) #0 {
  %10 = alloca ptr, align 8
  %11 = alloca ptr, align 8
  %12 = alloca i32, align 4
  %13 = alloca ptr, align 8
  %14 = alloca ptr, align 8
  %15 = alloca ptr, align 8
  %16 = alloca ptr, align 8
  %17 = alloca ptr, align 8
  %18 = alloca ptr, align 8
  store ptr %0, ptr %10, align 8, !tbaa !3
  store ptr %1, ptr %11, align 8, !tbaa !3
  store i32 %2, ptr %12, align 4, !tbaa !8
  store ptr %3, ptr %13, align 8, !tbaa !3
  store ptr %4, ptr %14, align 8, !tbaa !3
  store ptr %5, ptr %15, align 8, !tbaa !3
  store ptr %6, ptr %16, align 8, !tbaa !3
  store ptr %7, ptr %17, align 8, !tbaa !3
  store ptr %8, ptr %18, align 8, !tbaa !10
  %19 = load ptr, ptr %10, align 8, !tbaa !3
  %20 = load ptr, ptr %11, align 8, !tbaa !3
  %21 = load i32, ptr %12, align 4, !tbaa !8
  %22 = load ptr, ptr %13, align 8, !tbaa !3
  %23 = load ptr, ptr %14, align 8, !tbaa !3
  %24 = load ptr, ptr %15, align 8, !tbaa !3
  %25 = load ptr, ptr %16, align 8, !tbaa !3
  call void @test_fail_message_prefix(ptr noundef %19, ptr noundef %20, i32 noundef %21, ptr noundef %22, ptr noundef %23, ptr noundef %24, ptr noundef %25)
  %26 = load ptr, ptr %17, align 8, !tbaa !3
  %27 = icmp ne ptr %26, null
  br i1 %27, label %28, label %33

28:                                               ; preds = %9
  %29 = load ptr, ptr %17, align 8, !tbaa !3
  %30 = load ptr, ptr %18, align 8, !tbaa !10
  %31 = call i32 @test_vprintf_stderr(ptr noundef %29, ptr noundef %30)
  %32 = call i32 (ptr, ...) @test_printf_stderr(ptr noundef @.str.6)
  br label %33

33:                                               ; preds = %28, %9
  %34 = call i32 @test_flush_stderr()
  ret void
}

; Function Attrs: nounwind uwtable
define i32 @test_skip(ptr noundef %0, i32 noundef %1, ptr noundef %2, ...) #0 {
  %4 = alloca ptr, align 8
  %5 = alloca i32, align 4
  %6 = alloca ptr, align 8
  %7 = alloca [1 x %struct.__va_list_tag], align 16
  store ptr %0, ptr %4, align 8, !tbaa !3
  store i32 %1, ptr %5, align 4, !tbaa !8
  store ptr %2, ptr %6, align 8, !tbaa !3
  call void @llvm.lifetime.start.p0(i64 24, ptr %7) #7
  %8 = getelementptr inbounds [1 x %struct.__va_list_tag], ptr %7, i64 0, i64 0
  call void @llvm.va_start.p0(ptr %8)
  %9 = load ptr, ptr %4, align 8, !tbaa !3
  %10 = load i32, ptr %5, align 4, !tbaa !8
  %11 = load ptr, ptr %6, align 8, !tbaa !3
  %12 = getelementptr inbounds [1 x %struct.__va_list_tag], ptr %7, i64 0, i64 0
  call void @test_fail_message_va(ptr noundef @.str.10, ptr noundef %9, i32 noundef %10, ptr noundef null, ptr noundef null, ptr noundef null, ptr noundef null, ptr noundef %11, ptr noundef %12)
  %13 = getelementptr inbounds [1 x %struct.__va_list_tag], ptr %7, i64 0, i64 0
  call void @llvm.va_end.p0(ptr %13)
  call void @llvm.lifetime.end.p0(i64 24, ptr %7) #7
  ret i32 123
}